target datalayout = "e-m:e-p270:32:32-p271:32:32-p272:64:64-i64:64-i128:128-f80:128-n8:16:32:64-S128"
target triple = "x86_64-pc-linux-gnu"

%class.SignatureIterator = type { ptr, i8, i64 }
%class.SignatureStream = type { ptr, i32, i32, i32, i32, i8, i32, ptr, ptr }

@_ZN15SignatureStreamC1EPK6Symbolb = hidden unnamed_addr alias void (ptr, ptr, i1), ptr @_ZN15SignatureStreamC2EPK6Symbolb
@_ZN15SignatureStreamD1Ev = hidden unnamed_addr alias void (ptr), ptr @_ZN15SignatureStreamD2Ev

; Function Attrs: mustprogress nounwind uwtable
define linkonce_odr hidden noundef zeroext i1 @_ZNK15SignatureStream14at_return_typeEv(ptr noundef nonnull align 8 dereferenceable(48) %0) #1 comdat align 2 {
  %2 = alloca ptr, align 8
  store ptr %0, ptr %2, align 8
  %3 = load ptr, ptr %2, align 8
  %4 = getelementptr inbounds %class.SignatureStream, ptr %3, i32 0, i32 6
  %5 = load i32, ptr %4, align 4
  %6 = icmp eq i32 %5, 3
  ret i1 %6
}

; Function Attrs: mustprogress nounwind uwtable
define linkonce_odr hidden noundef zeroext i8 @_ZNK15SignatureStream4typeEv(ptr noundef nonnull align 8 dereferenceable(48) %0) #1 comdat align 2 {
  %2 = alloca ptr, align 8
  store ptr %0, ptr %2, align 8
  %3 = load ptr, ptr %2, align 8
  %4 = getelementptr inbounds %class.SignatureStream, ptr %3, i32 0, i32 5
  %5 = load i8, ptr %4, align 8
  ret i8 %5
}

; Function Attrs: mustprogress nounwind uwtable
define hidden void @_ZN15SignatureStream19skip_to_return_typeEv(ptr noundef nonnull align 8 dereferenceable(48) %0) #1 align 2 {
  %2 = alloca ptr, align 8
  store ptr %0, ptr %2, align 8
  %3 = load ptr, ptr %2, align 8
  br label %4

4:                                                ; preds = %7, %1
  %5 = call noundef zeroext i1 @_ZNK15SignatureStream14at_return_typeEv(ptr noundef nonnull align 8 dereferenceable(48) %3)
  %6 = xor i1 %5, true
  br i1 %6, label %7, label %8

7:                                                ; preds = %4
  call void @_ZN15SignatureStream4nextEv(ptr noundef nonnull align 8 dereferenceable(48) %3)
  br label %4, !llvm.loop !6

8:                                                ; preds = %4
  ret void
}

; Function Attrs: mustprogress nounwind uwtable
define hidden noundef zeroext i8 @_ZN17SignatureIterator11return_typeEv(ptr noundef nonnull align 8 dereferenceable(24) %0) #1 align 2 {
  %2 = alloca ptr, align 8
  %3 = alloca %class.SignatureStream, align 8
  store ptr %0, ptr %2, align 8
  %4 = load ptr, ptr %2, align 8
  %5 = getelementptr inbounds %class.SignatureIterator, ptr %4, i32 0, i32 1
  %6 = load i8, ptr %5, align 8
  %7 = zext i8 %6 to i32
  %8 = icmp eq i32 %7, 99
  br i1 %8, label %9, label %14

9:                                                ; preds = %1
  %10 = getelementptr inbounds %class.SignatureIterator, ptr %4, i32 0, i32 0
  %11 = load ptr, ptr %10, align 8
  call void @_ZN15SignatureStreamC1EPK6Symbolb(ptr noundef nonnull align 8 dereferenceable(48) %3, ptr noundef %11, i1 noundef zeroext true)
  call void @_ZN15SignatureStream19skip_to_return_typeEv(ptr noundef nonnull align 8 dereferenceable(48) %3)
  %12 = call noundef zeroext i8 @_ZNK15SignatureStream4typeEv(ptr noundef nonnull align 8 dereferenceable(48) %3)
  %13 = getelementptr inbounds %class.SignatureIterator, ptr %4, i32 0, i32 1
  store i8 %12, ptr %13, align 8
  call void @_ZN15SignatureStreamD1Ev(ptr noundef nonnull align 8 dereferenceable(48) %3) #7
  br label %14

14:                                               ; preds = %9, %1
  %15 = getelementptr inbounds %class.SignatureIterator, ptr %4, i32 0, i32 1
  %16 = load i8, ptr %15, align 8
  ret i8 %16
}