; Function Attrs: mustprogress nounwind uwtable
define hidden noundef zeroext i8 @_ZN17SignatureIterator11return_typeEv(ptr nocapture noundef nonnull align 8 dereferenceable(24) %0) local_unnamed_addr #1 align 2 {
  %2 = alloca %class.SignatureStream, align 8
  %3 = getelementptr inbounds i8, ptr %0, i64 8
  %4 = load i8, ptr %3, align 8
  %5 = icmp eq i8 %4, 99
  br i1 %5, label %6, label %_ZN15SignatureStreamD2Ev.exit

6:                                                ; preds = %1
  %7 = load ptr, ptr %0, align 8
  store ptr %7, ptr %2, align 8
  %8 = getelementptr inbounds i8, ptr %7, i64 4
  %9 = load i16, ptr %8, align 4
  %10 = zext i16 %9 to i32
  %11 = getelementptr inbounds i8, ptr %2, i64 16
  store i32 %10, ptr %11, align 8
  %12 = getelementptr inbounds i8, ptr %2, i64 28
  store i32 1, ptr %12, align 4
  %13 = getelementptr inbounds i8, ptr %2, i64 12
  store i32 1, ptr %13, align 4
  %14 = getelementptr inbounds i8, ptr %2, i64 8
  store i32 1, ptr %14, align 8
  %15 = getelementptr inbounds i8, ptr %2, i64 20
  store i32 0, ptr %15, align 4
  %16 = load ptr, ptr getelementptr inbounds (i8, ptr @_ZN6Symbol11_vm_symbolsE, i64 24), align 8
  %17 = getelementptr inbounds i8, ptr %2, i64 32
  store ptr %16, ptr %17, align 8
  %18 = getelementptr inbounds i8, ptr %2, i64 40
  store ptr null, ptr %18, align 8
  call void @_ZN15SignatureStream4nextEv(ptr noundef nonnull align 8 dereferenceable(48) %2)
  %19 = load i32, ptr %12, align 4
  %20 = icmp eq i32 %19, 3
  br i1 %20, label %_ZN15SignatureStream19skip_to_return_typeEv.exit, label %.lr.ph.i

.lr.ph.i:                                         ; preds = %6, %.lr.ph.i
  call void @_ZN15SignatureStream4nextEv(ptr noundef nonnull align 8 dereferenceable(48) %2)
  %21 = load i32, ptr %12, align 4
  %22 = icmp eq i32 %21, 3
  br i1 %22, label %_ZN15SignatureStream19skip_to_return_typeEv.exit, label %.lr.ph.i, !llvm.loop !6

_ZN15SignatureStream19skip_to_return_typeEv.exit: ; preds = %.lr.ph.i, %6
  %23 = getelementptr inbounds i8, ptr %2, i64 24
  %24 = load i8, ptr %23, align 8
  store i8 %24, ptr %3, align 8
  %25 = load ptr, ptr %17, align 8
  %26 = load ptr, ptr getelementptr inbounds (i8, ptr @_ZN6Symbol11_vm_symbolsE, i64 24), align 8
  %27 = icmp eq ptr %25, %26
  br i1 %27, label %_ZN15SignatureStreamD2Ev.exit, label %28

28:                                               ; preds = %_ZN15SignatureStream19skip_to_return_typeEv.exit
  tail call void @_ZN6Symbol18decrement_refcountEv(ptr noundef nonnull align 4 dereferenceable(8) %25) #14
  %29 = load ptr, ptr %18, align 8
  %.not.i = icmp eq ptr %29, null
  br i1 %.not.i, label %_ZN15SignatureStreamD2Ev.exit, label %.preheader.i

.preheader.i:                                     ; preds = %28
  %30 = load i32, ptr %29, align 4
  %31 = icmp sgt i32 %30, 0
  br i1 %31, label %.lr.ph.i1.preheader, label %_ZN15SignatureStreamD2Ev.exit

.lr.ph.i1.preheader:                              ; preds = %.preheader.i
  %32 = getelementptr inbounds i8, ptr %29, i64 8
  br label %.lr.ph.i1

.lr.ph.i1:                                        ; preds = %.lr.ph.i1.preheader, %.lr.ph.i1
  %indvars.iv.i = phi i64 [ %indvars.iv.next.i, %.lr.ph.i1 ], [ 0, %.lr.ph.i1.preheader ]
  %33 = load ptr, ptr %32, align 8
  %34 = getelementptr inbounds ptr, ptr %33, i64 %indvars.iv.i
  %35 = load ptr, ptr %34, align 8
  tail call void @_ZN6Symbol18decrement_refcountEv(ptr noundef nonnull align 4 dereferenceable(8) %35) #14
  %indvars.iv.next.i = add nuw nsw i64 %indvars.iv.i, 1
  %36 = load i32, ptr %29, align 4
  %37 = sext i32 %36 to i64
  %38 = icmp slt i64 %indvars.iv.next.i, %37
  br i1 %38, label %.lr.ph.i1, label %_ZN15SignatureStreamD2Ev.exit, !llvm.loop !8

_ZN15SignatureStreamD2Ev.exit:                    ; preds = %.lr.ph.i1, %.preheader.i, %28, %_ZN15SignatureStream19skip_to_return_typeEv.exit, %1
  %39 = load i8, ptr %3, align 8
  ret i8 %39
}